; Function Attrs: mustprogress uwtable
define void @_ZN7rocksdb8IOTracer12StartIOTraceEPNS_11SystemClockERKNS_12TraceOptionsEOSt10unique_ptrINS_11TraceWriterESt14default_deleteIS7_EE(ptr dead_on_unwind noalias writable sret(%"class.rocksdb::Status") align 8 %0, ptr noundef nonnull align 8 dereferenceable(105) %1, ptr noundef %2, ptr noundef nonnull align 8 dereferenceable(25) %3, ptr noundef nonnull align 8 dereferenceable(8) %4) local_unnamed_addr #6 align 2 personality ptr @__gxx_personality_v0 {
  %6 = getelementptr inbounds nuw i8, ptr %1, i64 32
  tail call void @_ZN7rocksdb17InstrumentedMutex4LockEv(ptr noundef nonnull align 8 dereferenceable(60) %6)
  %7 = getelementptr inbounds nuw i8, ptr %1, i64 96
  %8 = load atomic i64, ptr %7 seq_cst, align 8
  %.not = icmp eq i64 %8, 0
  br i1 %.not, label %15, label %9

9:                                                ; preds = %5
  store i8 11, ptr %0, align 8, !tbaa !77, !alias.scope !121
  %10 = getelementptr inbounds nuw i8, ptr %0, i64 1
  store i8 0, ptr %10, align 1, !tbaa !88, !alias.scope !121
  %11 = getelementptr inbounds nuw i8, ptr %0, i64 2
  %12 = getelementptr inbounds nuw i8, ptr %0, i64 8
  store ptr null, ptr %12, align 8, !tbaa !37, !alias.scope !121
  store i32 0, ptr %11, align 2, !alias.scope !121
  br label %24

13:                                               ; preds = %18, %15
  %14 = landingpad { ptr, i32 }
          cleanup
  br label %28

15:                                               ; preds = %5
  tail call void @llvm.memcpy.p0.p0.i64(ptr noundef nonnull align 8 dereferenceable(25) %1, ptr noundef nonnull align 8 dereferenceable(25) %3, i64 25, i1 false), !tbaa.struct !30
  %16 = invoke noalias noundef nonnull dereferenceable(48) ptr @_Znwm(i64 noundef 48) #24
          to label %17 unwind label %13

17:                                               ; preds = %15
  invoke void @_ZN7rocksdb13IOTraceWriterC1EPNS_11SystemClockERKNS_12TraceOptionsEOSt10unique_ptrINS_11TraceWriterESt14default_deleteIS7_EE(ptr noundef nonnull align 8 dereferenceable(48) %16, ptr noundef %2, ptr noundef nonnull align 8 dereferenceable(25) %3, ptr noundef nonnull align 8 dereferenceable(8) %4)
          to label %18 unwind label %22

18:                                               ; preds = %17
  %19 = ptrtoint ptr %16 to i64
  store atomic i64 %19, ptr %7 seq_cst, align 8
  %20 = getelementptr inbounds nuw i8, ptr %1, i64 104
  store i8 1, ptr %20, align 8, !tbaa !113
  %21 = load atomic i64, ptr %7 seq_cst, align 8
  %.0.i.i8 = inttoptr i64 %21 to ptr
  invoke void @_ZN7rocksdb13IOTraceWriter11WriteHeaderEv(ptr dead_on_unwind writable sret(%"class.rocksdb::Status") align 8 %0, ptr noundef nonnull align 8 dereferenceable(48) %.0.i.i8)
          to label %24 unwind label %13

22:                                               ; preds = %17
  %23 = landingpad { ptr, i32 }
          cleanup
  tail call void @_ZdlPvm(ptr noundef nonnull %16, i64 noundef 48) #20
  br label %28

24:                                               ; preds = %9, %18
  invoke void @_ZN7rocksdb4port5Mutex6UnlockEv(ptr noundef nonnull align 8 dereferenceable(60) %6)
          to label %_ZN7rocksdb21InstrumentedMutexLockD2Ev.exit unwind label %25

25:                                               ; preds = %24
  %26 = landingpad { ptr, i32 }
          catch ptr null
  %27 = extractvalue { ptr, i32 } %26, 0
  tail call void @__clang_call_terminate(ptr %27) #23
  unreachable

_ZN7rocksdb21InstrumentedMutexLockD2Ev.exit:      ; preds = %24
  ret void

28:                                               ; preds = %22, %13
  %.pn = phi { ptr, i32 } [ %14, %13 ], [ %23, %22 ]
  invoke void @_ZN7rocksdb4port5Mutex6UnlockEv(ptr noundef nonnull align 8 dereferenceable(60) %6)
          to label %_ZN7rocksdb21InstrumentedMutexLockD2Ev.exit9 unwind label %29

29:                                               ; preds = %28
  %30 = landingpad { ptr, i32 }
          catch ptr null
  %31 = extractvalue { ptr, i32 } %30, 0
  tail call void @__clang_call_terminate(ptr %31) #23
  unreachable

_ZN7rocksdb21InstrumentedMutexLockD2Ev.exit9:     ; preds = %28
  resume { ptr, i32 } %.pn
}